#include <math.h>
#include <stdio.h>
#include <stdlib.h>
#include <string.h>


int main(int argc, char* argv[])
{
	int a[100][100],b[100][100];
	int x1,y1,x2,y2,m,n,i,j,p,q,z;
	scanf("%d%d",&x1,&y1);
	for(i=0;i<x1;i++)
		for(j=0;j<y1;j++)
			scanf("%d",&a[i][j]);
	scanf("%d%d",&x2,&y2);
	for(p=0;p<x2;p++)
		for(q=0;q<y2;q++)
			scanf("%d",&b[p][q]);
	int c[100][100];
	int sum;
	for(m=0;m<x1;m++)
	{
		for(n=0;n<y2;n++)
		{
			{   
				sum=0;
				for(z=0;z<y1;z++)
				sum=sum+a[m][z]*b[z][n];
			}
			c[m][n]=sum;
		}
	}
		for(m=0;m<x1;m++)
		{
			printf("%d",c[m][0]);
			for(n=1;n<y2;n++)
			{
				printf(" %d",c[m][n]);
			}
			printf("\n");
		}
	
	
	return 0;
}
				