; ModuleID = '63/1295.c'
source_filename = "63/1295.c"
target datalayout = "e-m:e-p270:32:32-p271:32:32-p272:64:64-i64:64-f80:128-n8:16:32:64-S128"
target triple = "x86_64-pc-linux-gnu"

@.str = private unnamed_addr constant [5 x i8] c"%d%d\00", align 1
@.str.1 = private unnamed_addr constant [3 x i8] c"%d\00", align 1
@.str.2 = private unnamed_addr constant [4 x i8] c" %d\00", align 1
@.str.3 = private unnamed_addr constant [2 x i8] c"\0A\00", align 1

; Function Attrs: noinline nounwind uwtable
define dso_local i32 @main(i32 %0, i8** %1) #0 {
  %3 = alloca i32, align 4
  %4 = alloca i32, align 4
  %5 = alloca i8**, align 8
  %6 = alloca [100 x [100 x i32]], align 16
  %7 = alloca [100 x [100 x i32]], align 16
  %8 = alloca i32, align 4
  %9 = alloca i32, align 4
  %10 = alloca i32, align 4
  %11 = alloca i32, align 4
  %12 = alloca i32, align 4
  %13 = alloca i32, align 4
  %14 = alloca i32, align 4
  %15 = alloca i32, align 4
  %16 = alloca i32, align 4
  %17 = alloca i32, align 4
  %18 = alloca i32, align 4
  %19 = alloca [100 x [100 x i32]], align 16
  %20 = alloca i32, align 4
  store i32 0, i32* %3, align 4
  store i32 %0, i32* %4, align 4
  store i8** %1, i8*** %5, align 8
  %21 = call i32 (i8*, ...) @__isoc99_scanf(i8* getelementptr inbounds ([5 x i8], [5 x i8]* @.str, i64 0, i64 0), i32* %8, i32* %9)
  store i32 0, i32* %14, align 4
  br label %22

22:                                               ; preds = %43, %2
  %23 = load i32, i32* %14, align 4
  %24 = load i32, i32* %8, align 4
  %25 = icmp slt i32 %23, %24
  br i1 %25, label %26, label %46

26:                                               ; preds = %22
  store i32 0, i32* %15, align 4
  br label %27

27:                                               ; preds = %39, %26
  %28 = load i32, i32* %15, align 4
  %29 = load i32, i32* %9, align 4
  %30 = icmp slt i32 %28, %29
  br i1 %30, label %31, label %42

31:                                               ; preds = %27
  %32 = load i32, i32* %14, align 4
  %33 = sext i32 %32 to i64
  %34 = getelementptr inbounds [100 x [100 x i32]], [100 x [100 x i32]]* %6, i64 0, i64 %33
  %35 = load i32, i32* %15, align 4
  %36 = sext i32 %35 to i64
  %37 = getelementptr inbounds [100 x i32], [100 x i32]* %34, i64 0, i64 %36
  %38 = call i32 (i8*, ...) @__isoc99_scanf(i8* getelementptr inbounds ([3 x i8], [3 x i8]* @.str.1, i64 0, i64 0), i32* %37)
  br label %39

39:                                               ; preds = %31
  %40 = load i32, i32* %15, align 4
  %41 = add nsw i32 %40, 1
  store i32 %41, i32* %15, align 4
  br label %27

42:                                               ; preds = %27
  br label %43

43:                                               ; preds = %42
  %44 = load i32, i32* %14, align 4
  %45 = add nsw i32 %44, 1
  store i32 %45, i32* %14, align 4
  br label %22

46:                                               ; preds = %22
  %47 = call i32 (i8*, ...) @__isoc99_scanf(i8* getelementptr inbounds ([5 x i8], [5 x i8]* @.str, i64 0, i64 0), i32* %10, i32* %11)
  store i32 0, i32* %16, align 4
  br label %48

48:                                               ; preds = %69, %46
  %49 = load i32, i32* %16, align 4
  %50 = load i32, i32* %10, align 4
  %51 = icmp slt i32 %49, %50
  br i1 %51, label %52, label %72

52:                                               ; preds = %48
  store i32 0, i32* %17, align 4
  br label %53

53:                                               ; preds = %65, %52
  %54 = load i32, i32* %17, align 4
  %55 = load i32, i32* %11, align 4
  %56 = icmp slt i32 %54, %55
  br i1 %56, label %57, label %68

57:                                               ; preds = %53
  %58 = load i32, i32* %16, align 4
  %59 = sext i32 %58 to i64
  %60 = getelementptr inbounds [100 x [100 x i32]], [100 x [100 x i32]]* %7, i64 0, i64 %59
  %61 = load i32, i32* %17, align 4
  %62 = sext i32 %61 to i64
  %63 = getelementptr inbounds [100 x i32], [100 x i32]* %60, i64 0, i64 %62
  %64 = call i32 (i8*, ...) @__isoc99_scanf(i8* getelementptr inbounds ([3 x i8], [3 x i8]* @.str.1, i64 0, i64 0), i32* %63)
  br label %65

65:                                               ; preds = %57
  %66 = load i32, i32* %17, align 4
  %67 = add nsw i32 %66, 1
  store i32 %67, i32* %17, align 4
  br label %53

68:                                               ; preds = %53
  br label %69

69:                                               ; preds = %68
  %70 = load i32, i32* %16, align 4
  %71 = add nsw i32 %70, 1
  store i32 %71, i32* %16, align 4
  br label %48

72:                                               ; preds = %48
  store i32 0, i32* %12, align 4
  br label %73

73:                                               ; preds = %120, %72
  %74 = load i32, i32* %12, align 4
  %75 = load i32, i32* %8, align 4
  %76 = icmp slt i32 %74, %75
  br i1 %76, label %77, label %123

77:                                               ; preds = %73
  store i32 0, i32* %13, align 4
  br label %78

78:                                               ; preds = %116, %77
  %79 = load i32, i32* %13, align 4
  %80 = load i32, i32* %11, align 4
  %81 = icmp slt i32 %79, %80
  br i1 %81, label %82, label %119

82:                                               ; preds = %78
  store i32 0, i32* %20, align 4
  store i32 0, i32* %18, align 4
  br label %83

83:                                               ; preds = %105, %82
  %84 = load i32, i32* %18, align 4
  %85 = load i32, i32* %9, align 4
  %86 = icmp slt i32 %84, %85
  br i1 %86, label %87, label %108

87:                                               ; preds = %83
  %88 = load i32, i32* %20, align 4
  %89 = load i32, i32* %12, align 4
  %90 = sext i32 %89 to i64
  %91 = getelementptr inbounds [100 x [100 x i32]], [100 x [100 x i32]]* %6, i64 0, i64 %90
  %92 = load i32, i32* %18, align 4
  %93 = sext i32 %92 to i64
  %94 = getelementptr inbounds [100 x i32], [100 x i32]* %91, i64 0, i64 %93
  %95 = load i32, i32* %94, align 4
  %96 = load i32, i32* %18, align 4
  %97 = sext i32 %96 to i64
  %98 = getelementptr inbounds [100 x [100 x i32]], [100 x [100 x i32]]* %7, i64 0, i64 %97
  %99 = load i32, i32* %13, align 4
  %100 = sext i32 %99 to i64
  %101 = getelementptr inbounds [100 x i32], [100 x i32]* %98, i64 0, i64 %100
  %102 = load i32, i32* %101, align 4
  %103 = mul nsw i32 %95, %102
  %104 = add nsw i32 %88, %103
  store i32 %104, i32* %20, align 4
  br label %105

105:                                              ; preds = %87
  %106 = load i32, i32* %18, align 4
  %107 = add nsw i32 %106, 1
  store i32 %107, i32* %18, align 4
  br label %83

108:                                              ; preds = %83
  %109 = load i32, i32* %20, align 4
  %110 = load i32, i32* %12, align 4
  %111 = sext i32 %110 to i64
  %112 = getelementptr inbounds [100 x [100 x i32]], [100 x [100 x i32]]* %19, i64 0, i64 %111
  %113 = load i32, i32* %13, align 4
  %114 = sext i32 %113 to i64
  %115 = getelementptr inbounds [100 x i32], [100 x i32]* %112, i64 0, i64 %114
  store i32 %109, i32* %115, align 4
  br label %116

116:                                              ; preds = %108
  %117 = load i32, i32* %13, align 4
  %118 = add nsw i32 %117, 1
  store i32 %118, i32* %13, align 4
  br label %78

119:                                              ; preds = %78
  br label %120

120:                                              ; preds = %119
  %121 = load i32, i32* %12, align 4
  %122 = add nsw i32 %121, 1
  store i32 %122, i32* %12, align 4
  br label %73

123:                                              ; preds = %73
  store i32 0, i32* %12, align 4
  br label %124

124:                                              ; preds = %153, %123
  %125 = load i32, i32* %12, align 4
  %126 = load i32, i32* %8, align 4
  %127 = icmp slt i32 %125, %126
  br i1 %127, label %128, label %156

128:                                              ; preds = %124
  %129 = load i32, i32* %12, align 4
  %130 = sext i32 %129 to i64
  %131 = getelementptr inbounds [100 x [100 x i32]], [100 x [100 x i32]]* %19, i64 0, i64 %130
  %132 = getelementptr inbounds [100 x i32], [100 x i32]* %131, i64 0, i64 0
  %133 = load i32, i32* %132, align 16
  %134 = call i32 (i8*, ...) @printf(i8* getelementptr inbounds ([3 x i8], [3 x i8]* @.str.1, i64 0, i64 0), i32 %133)
  store i32 1, i32* %13, align 4
  br label %135

135:                                              ; preds = %148, %128
  %136 = load i32, i32* %13, align 4
  %137 = load i32, i32* %11, align 4
  %138 = icmp slt i32 %136, %137
  br i1 %138, label %139, label %151

139:                                              ; preds = %135
  %140 = load i32, i32* %12, align 4
  %141 = sext i32 %140 to i64
  %142 = getelementptr inbounds [100 x [100 x i32]], [100 x [100 x i32]]* %19, i64 0, i64 %141
  %143 = load i32, i32* %13, align 4
  %144 = sext i32 %143 to i64
  %145 = getelementptr inbounds [100 x i32], [100 x i32]* %142, i64 0, i64 %144
  %146 = load i32, i32* %145, align 4
  %147 = call i32 (i8*, ...) @printf(i8* getelementptr inbounds ([4 x i8], [4 x i8]* @.str.2, i64 0, i64 0), i32 %146)
  br label %148

148:                                              ; preds = %139
  %149 = load i32, i32* %13, align 4
  %150 = add nsw i32 %149, 1
  store i32 %150, i32* %13, align 4
  br label %135

151:                                              ; preds = %135
  %152 = call i32 (i8*, ...) @printf(i8* getelementptr inbounds ([2 x i8], [2 x i8]* @.str.3, i64 0, i64 0))
  br label %153

153:                                              ; preds = %151
  %154 = load i32, i32* %12, align 4
  %155 = add nsw i32 %154, 1
  store i32 %155, i32* %12, align 4
  br label %124

156:                                              ; preds = %124
  ret i32 0
}

declare dso_local i32 @__isoc99_scanf(i8*, ...) #1

declare dso_local i32 @printf(i8*, ...) #1


!llvm.module.flags = !{!0}
!llvm.ident = !{!1}

!0 = !{i32 1, !"wchar_size", i32 4}
!1 = !{!"clang version 10.0.0-4ubuntu1 "}
